target datalayout = "e-m:e-p270:32:32-p271:32:32-p272:64:64-i64:64-i128:128-f80:128-n8:16:32:64-S128"
target triple = "x86_64-pc-linux-gnu"

%struct._stat_tap_table_ui = type { i32, ptr, ptr, ptr, ptr, ptr, ptr, ptr, ptr, i64, ptr, i64, ptr, ptr, i32 }
%struct._stat_tap_table = type { ptr, ptr, i32, i32, ptr }
%struct._GArray = type { ptr, i32 }
%struct._stat_tap_table_item_type = type { i32, %union.anon, %union.anon.0 }
%union.anon = type { ptr }
%union.anon.0 = type { ptr }

; Function Attrs: nounwind null_pointer_is_valid sspstrong uwtable
define ptr @stat_tap_get_field_data(ptr noundef %0, i32 noundef %1, i32 noundef %2) #3 {
  %4 = alloca ptr, align 8
  %5 = alloca i32, align 4
  %6 = alloca i32, align 4
  %7 = alloca ptr, align 8
  store ptr %0, ptr %4, align 8
  store i32 %1, ptr %5, align 4
  store i32 %2, ptr %6, align 4
  call void @llvm.lifetime.start.p0(i64 8, ptr %7) #13
  br label %8

8:                                                ; preds = %3
  br label %9

9:                                                ; preds = %8
  br label %10

10:                                               ; preds = %9
  %11 = load ptr, ptr %4, align 8
  %12 = getelementptr inbounds nuw %struct._stat_tap_table, ptr %11, i32 0, i32 4
  %13 = load ptr, ptr %12, align 8
  %14 = load i32, ptr %5, align 4
  %15 = zext i32 %14 to i64
  %16 = getelementptr ptr, ptr %13, i64 %15
  %17 = load ptr, ptr %16, align 8
  store ptr %17, ptr %7, align 8
  br label %18

18:                                               ; preds = %10
  br label %19

19:                                               ; preds = %18
  br label %20

20:                                               ; preds = %19
  %21 = load ptr, ptr %7, align 8
  %22 = load i32, ptr %6, align 4
  %23 = zext i32 %22 to i64
  %24 = getelementptr %struct._stat_tap_table_item_type, ptr %21, i64 %23
  call void @llvm.lifetime.end.p0(i64 8, ptr %7) #13
  ret ptr %24
}

; Function Attrs: null_pointer_is_valid sspstrong uwtable
define void @free_stat_tables(ptr noundef %0) #0 {
  %2 = alloca ptr, align 8
  %3 = alloca i32, align 4
  %4 = alloca i32, align 4
  %5 = alloca i32, align 4
  %6 = alloca ptr, align 8
  %7 = alloca ptr, align 8
  store ptr %0, ptr %2, align 8
  call void @llvm.lifetime.start.p0(i64 4, ptr %3) #13
  store i32 0, ptr %3, align 4
  call void @llvm.lifetime.start.p0(i64 4, ptr %4) #13
  call void @llvm.lifetime.start.p0(i64 4, ptr %5) #13
  call void @llvm.lifetime.start.p0(i64 8, ptr %6) #13
  call void @llvm.lifetime.start.p0(i64 8, ptr %7) #13
  store i32 0, ptr %3, align 4
  br label %8

8:                                                ; preds = %76, %1
  %9 = load i32, ptr %3, align 4
  %10 = load ptr, ptr %2, align 8
  %11 = getelementptr inbounds nuw %struct._stat_tap_table_ui, ptr %10, i32 0, i32 13
  %12 = load ptr, ptr %11, align 8
  %13 = getelementptr inbounds nuw %struct._GArray, ptr %12, i32 0, i32 1
  %14 = load i32, ptr %13, align 8
  %15 = icmp ult i32 %9, %14
  br i1 %15, label %16, label %79

16:                                               ; preds = %8
  %17 = load ptr, ptr %2, align 8
  %18 = getelementptr inbounds nuw %struct._stat_tap_table_ui, ptr %17, i32 0, i32 13
  %19 = load ptr, ptr %18, align 8
  %20 = getelementptr inbounds nuw %struct._GArray, ptr %19, i32 0, i32 0
  %21 = load ptr, ptr %20, align 8
  %22 = load i32, ptr %3, align 4
  %23 = zext i32 %22 to i64
  %24 = getelementptr ptr, ptr %21, i64 %23
  %25 = load ptr, ptr %24, align 8
  store ptr %25, ptr %6, align 8
  store i32 0, ptr %4, align 4
  br label %26

26:                                               ; preds = %68, %16
  %27 = load i32, ptr %4, align 4
  %28 = load ptr, ptr %6, align 8
  %29 = getelementptr inbounds nuw %struct._stat_tap_table, ptr %28, i32 0, i32 3
  %30 = load i32, ptr %29, align 4
  %31 = icmp ult i32 %27, %30
  br i1 %31, label %32, label %71

32:                                               ; preds = %26
  store i32 0, ptr %5, align 4
  br label %33

33:                                               ; preds = %57, %32
  %34 = load i32, ptr %5, align 4
  %35 = load ptr, ptr %6, align 8
  %36 = getelementptr inbounds nuw %struct._stat_tap_table, ptr %35, i32 0, i32 2
  %37 = load i32, ptr %36, align 8
  %38 = icmp ult i32 %34, %37
  br i1 %38, label %39, label %60

39:                                               ; preds = %33
  %40 = load ptr, ptr %6, align 8
  %41 = load i32, ptr %4, align 4
  %42 = load i32, ptr %5, align 4
  %43 = call ptr @stat_tap_get_field_data(ptr noundef %40, i32 noundef %41, i32 noundef %42)
  store ptr %43, ptr %7, align 8
  %44 = load ptr, ptr %2, align 8
  %45 = getelementptr inbounds nuw %struct._stat_tap_table_ui, ptr %44, i32 0, i32 7
  %46 = load ptr, ptr %45, align 8
  %47 = icmp ne ptr %46, null
  br i1 %47, label %48, label %56

48:                                               ; preds = %39
  %49 = load ptr, ptr %2, align 8
  %50 = getelementptr inbounds nuw %struct._stat_tap_table_ui, ptr %49, i32 0, i32 7
  %51 = load ptr, ptr %50, align 8
  %52 = load ptr, ptr %6, align 8
  %53 = load i32, ptr %4, align 4
  %54 = load i32, ptr %5, align 4
  %55 = load ptr, ptr %7, align 8
  call void %51(ptr noundef %52, i32 noundef %53, i32 noundef %54, ptr noundef %55)
  br label %56

56:                                               ; preds = %48, %39
  br label %57

57:                                               ; preds = %56
  %58 = load i32, ptr %5, align 4
  %59 = add i32 %58, 1
  store i32 %59, ptr %5, align 4
  br label %33, !llvm.loop !12

60:                                               ; preds = %33
  %61 = load ptr, ptr %6, align 8
  %62 = getelementptr inbounds nuw %struct._stat_tap_table, ptr %61, i32 0, i32 4
  %63 = load ptr, ptr %62, align 8
  %64 = load i32, ptr %4, align 4
  %65 = zext i32 %64 to i64
  %66 = getelementptr ptr, ptr %63, i64 %65
  %67 = load ptr, ptr %66, align 8
  call void @g_free(ptr noundef %67)
  br label %68

68:                                               ; preds = %60
  %69 = load i32, ptr %4, align 4
  %70 = add i32 %69, 1
  store i32 %70, ptr %4, align 4
  br label %26, !llvm.loop !13

71:                                               ; preds = %26
  %72 = load ptr, ptr %6, align 8
  %73 = getelementptr inbounds nuw %struct._stat_tap_table, ptr %72, i32 0, i32 4
  %74 = load ptr, ptr %73, align 8
  call void @g_free(ptr noundef %74)
  %75 = load ptr, ptr %6, align 8
  call void @g_free(ptr noundef %75)
  br label %76

76:                                               ; preds = %71
  %77 = load i32, ptr %3, align 4
  %78 = add i32 %77, 1
  store i32 %78, ptr %3, align 4
  br label %8, !llvm.loop !14

79:                                               ; preds = %8
  %80 = load ptr, ptr %2, align 8
  %81 = getelementptr inbounds nuw %struct._stat_tap_table_ui, ptr %80, i32 0, i32 13
  %82 = load ptr, ptr %81, align 8
  %83 = call ptr @g_array_set_size(ptr noundef %82, i32 noundef 0)
  call void @llvm.lifetime.end.p0(i64 8, ptr %7) #13
  call void @llvm.lifetime.end.p0(i64 8, ptr %6) #13
  call void @llvm.lifetime.end.p0(i64 4, ptr %5) #13
  call void @llvm.lifetime.end.p0(i64 4, ptr %4) #13
  call void @llvm.lifetime.end.p0(i64 4, ptr %3) #13
  ret void
}