; Function Attrs: null_pointer_is_valid sspstrong uwtable
define void @free_stat_tables(ptr noundef readonly captures(none) %0) local_unnamed_addr #0 {
  %2 = getelementptr inbounds nuw i8, ptr %0, i64 104
  %3 = load ptr, ptr %2, align 8
  %4 = getelementptr inbounds nuw i8, ptr %3, i64 8
  %5 = load i32, ptr %4, align 8
  %.not35 = icmp eq i32 %5, 0
  br i1 %.not35, label %._crit_edge34, label %.lr.ph33

.lr.ph33:                                         ; preds = %1
  %6 = getelementptr inbounds nuw i8, ptr %0, i64 56
  br label %7

7:                                                ; preds = %.lr.ph33, %._crit_edge30
  %indvars.iv44 = phi i64 [ 0, %.lr.ph33 ], [ %indvars.iv.next45, %._crit_edge30 ]
  %8 = phi ptr [ %3, %.lr.ph33 ], [ %40, %._crit_edge30 ]
  %9 = load ptr, ptr %8, align 8
  %10 = getelementptr ptr, ptr %9, i64 %indvars.iv44
  %11 = load ptr, ptr %10, align 8
  %12 = getelementptr inbounds nuw i8, ptr %11, i64 20
  %13 = load i32, ptr %12, align 4
  %.not36 = icmp eq i32 %13, 0
  br i1 %.not36, label %._crit_edge30, label %.preheader.lr.ph

.preheader.lr.ph:                                 ; preds = %7
  %14 = getelementptr inbounds nuw i8, ptr %11, i64 16
  %15 = getelementptr inbounds nuw i8, ptr %11, i64 24
  br label %.preheader

.preheader:                                       ; preds = %.preheader.lr.ph, %._crit_edge
  %indvars.iv41 = phi i64 [ 0, %.preheader.lr.ph ], [ %indvars.iv.next42, %._crit_edge ]
  %16 = load i32, ptr %14, align 8
  %.not37 = icmp eq i32 %16, 0
  br i1 %.not37, label %._crit_edge, label %.lr.ph

.lr.ph:                                           ; preds = %.preheader
  %17 = load ptr, ptr %6, align 8
  %18 = icmp eq ptr %17, null
  br i1 %18, label %._crit_edge, label %.lr.ph.split.preheader

.lr.ph.split.preheader:                           ; preds = %.lr.ph
  %19 = trunc nuw i64 %indvars.iv41 to i32
  br label %.lr.ph.split

.lr.ph.splitthread-pre-split:                     ; preds = %28
  %.pr = load ptr, ptr %6, align 8
  br label %.lr.ph.split

.lr.ph.split:                                     ; preds = %.lr.ph.splitthread-pre-split, %.lr.ph.split.preheader
  %20 = phi ptr [ %.pr, %.lr.ph.splitthread-pre-split ], [ %17, %.lr.ph.split.preheader ]
  %21 = phi i32 [ %29, %.lr.ph.splitthread-pre-split ], [ %16, %.lr.ph.split.preheader ]
  %indvars.iv = phi i64 [ %indvars.iv.next, %.lr.ph.splitthread-pre-split ], [ 0, %.lr.ph.split.preheader ]
  %.not = icmp eq ptr %20, null
  br i1 %.not, label %28, label %22

22:                                               ; preds = %.lr.ph.split
  %23 = load ptr, ptr %15, align 8
  %24 = getelementptr ptr, ptr %23, i64 %indvars.iv41
  %25 = load ptr, ptr %24, align 8
  %26 = getelementptr %struct._stat_tap_table_item_type, ptr %25, i64 %indvars.iv
  %27 = trunc nuw i64 %indvars.iv to i32
  tail call void %20(ptr noundef %11, i32 noundef %19, i32 noundef %27, ptr noundef %26)
  %.pre = load i32, ptr %14, align 8
  br label %28

28:                                               ; preds = %.lr.ph.split, %22
  %29 = phi i32 [ %21, %.lr.ph.split ], [ %.pre, %22 ]
  %indvars.iv.next = add nuw nsw i64 %indvars.iv, 1
  %30 = zext i32 %29 to i64
  %31 = icmp samesign ult i64 %indvars.iv.next, %30
  br i1 %31, label %.lr.ph.splitthread-pre-split, label %._crit_edge, !llvm.loop !13

._crit_edge:                                      ; preds = %28, %.lr.ph, %.preheader
  %32 = load ptr, ptr %15, align 8
  %33 = getelementptr ptr, ptr %32, i64 %indvars.iv41
  %34 = load ptr, ptr %33, align 8
  tail call void @g_free(ptr noundef %34)
  %indvars.iv.next42 = add nuw nsw i64 %indvars.iv41, 1
  %35 = load i32, ptr %12, align 4
  %36 = zext i32 %35 to i64
  %37 = icmp samesign ult i64 %indvars.iv.next42, %36
  br i1 %37, label %.preheader, label %._crit_edge30, !llvm.loop !14

._crit_edge30:                                    ; preds = %._crit_edge, %7
  %38 = getelementptr inbounds nuw i8, ptr %11, i64 24
  %39 = load ptr, ptr %38, align 8
  tail call void @g_free(ptr noundef %39)
  tail call void @g_free(ptr noundef %11)
  %indvars.iv.next45 = add nuw nsw i64 %indvars.iv44, 1
  %40 = load ptr, ptr %2, align 8
  %41 = getelementptr inbounds nuw i8, ptr %40, i64 8
  %42 = load i32, ptr %41, align 8
  %43 = zext i32 %42 to i64
  %44 = icmp samesign ult i64 %indvars.iv.next45, %43
  br i1 %44, label %7, label %._crit_edge34, !llvm.loop !15

._crit_edge34:                                    ; preds = %._crit_edge30, %1
  %.lcssa = phi ptr [ %3, %1 ], [ %40, %._crit_edge30 ]
  %45 = tail call ptr @g_array_set_size(ptr noundef %.lcssa, i32 noundef 0)
  ret void
}